target datalayout = "e-m:e-p270:32:32-p271:32:32-p272:64:64-i64:64-i128:128-f80:128-n8:16:32:64-S128"
target triple = "x86_64-pc-linux-gnu"

%class.G1HeapRegion = type { ptr, ptr, ptr, ptr, ptr, ptr, i32, %class.G1HeapRegionType, ptr, i32, ptr, ptr, ptr, i64, i32, ptr, i32, i32, i64 }
%class.G1HeapRegionType = type { i32 }
%class.G1HeapRegionRemSet = type <{ %class.G1CodeRootSet, %class.G1CardSetMemoryManager, %class.G1CardSet, ptr, i32, [4 x i8] }>
%class.G1CodeRootSet = type { ptr }
%class.G1CardSetMemoryManager = type { ptr, ptr, ptr }
%class.G1CardSet = type { ptr, ptr, ptr, ptr, i64 }

@g_assert_poison = external global ptr, align 8
@.str.11 = private unnamed_addr constant [54 x i8] c"src/hotspot/share/gc/g1/g1HeapRegionRemSet.inline.hpp\00", align 1
@_ZN20SafepointSynchronize6_stateE = external global i32, align 4
@_ZN18G1HeapRegionRemSet14_state_stringsE = external global [0 x ptr], align 8
@_ZN12G1HeapRegion10GrainBytesE = external global i64, align 8
@G1MixedGCLiveThresholdPercent = external global i32, align 4
@.str.14 = private unnamed_addr constant [75 x i8] c"guarantee(SafepointSynchronize::is_at_safepoint() && !is_tracked()) failed\00", align 1
@.str.15 = private unnamed_addr constant [70 x i8] c"Should only set to Updating from Untracked during safepoint but is %s\00", align 1

; Function Attrs: mustprogress nounwind uwtable
define linkonce_odr hidden noundef i64 @_Z13pointer_deltaPVKvS0_m(ptr noundef %0, ptr noundef %1, i64 noundef %2) #1 comdat {
  %4 = alloca ptr, align 8
  %5 = alloca ptr, align 8
  %6 = alloca i64, align 8
  store ptr %0, ptr %4, align 8
  store ptr %1, ptr %5, align 8
  store i64 %2, ptr %6, align 8
  %7 = load ptr, ptr %4, align 8
  %8 = ptrtoint ptr %7 to i64
  %9 = load ptr, ptr %5, align 8
  %10 = ptrtoint ptr %9 to i64
  %11 = sub i64 %8, %10
  %12 = load i64, ptr %6, align 8
  %13 = udiv i64 %11, %12
  ret i64 %13
}

; Function Attrs: mustprogress nounwind uwtable
define linkonce_odr hidden noundef i64 @_Z9byte_sizePvS_(ptr noundef %0, ptr noundef %1) #1 comdat {
  %3 = alloca ptr, align 8
  %4 = alloca ptr, align 8
  store ptr %0, ptr %3, align 8
  store ptr %1, ptr %4, align 8
  %5 = load ptr, ptr %4, align 8
  %6 = load ptr, ptr %3, align 8
  %7 = call noundef i64 @_Z13pointer_deltaPVKvS0_m(ptr noundef %5, ptr noundef %6, i64 noundef 1)
  ret i64 %7
}

; Function Attrs: mustprogress nounwind uwtable
define linkonce_odr hidden noundef ptr @_ZNK12G1HeapRegion3topEv(ptr noundef nonnull align 8 dereferenceable(136) %0) #1 comdat align 2 {
  %2 = alloca ptr, align 8
  store ptr %0, ptr %2, align 8
  %3 = load ptr, ptr %2, align 8
  %4 = getelementptr inbounds %class.G1HeapRegion, ptr %3, i32 0, i32 2
  %5 = load volatile ptr, ptr %4, align 8
  ret ptr %5
}

; Function Attrs: mustprogress nounwind uwtable
define linkonce_odr hidden noundef ptr @_ZNK12G1HeapRegion6bottomEv(ptr noundef nonnull align 8 dereferenceable(136) %0) #1 comdat align 2 {
  %2 = alloca ptr, align 8
  store ptr %0, ptr %2, align 8
  %3 = load ptr, ptr %2, align 8
  %4 = getelementptr inbounds %class.G1HeapRegion, ptr %3, i32 0, i32 0
  %5 = load ptr, ptr %4, align 8
  ret ptr %5
}

; Function Attrs: mustprogress nounwind uwtable
define linkonce_odr hidden noundef ptr @_ZNK18G1HeapRegionRemSet13get_state_strEv(ptr noundef nonnull align 8 dereferenceable(84) %0) #1 comdat align 2 {
  %2 = alloca ptr, align 8
  store ptr %0, ptr %2, align 8
  %3 = load ptr, ptr %2, align 8
  %4 = getelementptr inbounds %class.G1HeapRegionRemSet, ptr %3, i32 0, i32 4
  %5 = load i32, ptr %4, align 8
  %6 = zext i32 %5 to i64
  %7 = getelementptr inbounds [0 x ptr], ptr @_ZN18G1HeapRegionRemSet14_state_stringsE, i64 0, i64 %6
  %8 = load ptr, ptr %7, align 8
  ret ptr %8
}

; Function Attrs: mustprogress nounwind uwtable
define linkonce_odr hidden noundef zeroext i1 @_ZN20SafepointSynchronize15is_at_safepointEv() #1 comdat align 2 {
  %1 = load volatile i32, ptr @_ZN20SafepointSynchronize6_stateE, align 4
  %2 = icmp eq i32 %1, 2
  ret i1 %2
}

; Function Attrs: mustprogress nounwind uwtable
define linkonce_odr hidden noundef i64 @_ZN22G1CollectionSetChooser29mixed_gc_live_threshold_bytesEv() #1 comdat align 2 {
  %1 = load i64, ptr @_ZN12G1HeapRegion10GrainBytesE, align 8
  %2 = load i32, ptr @G1MixedGCLiveThresholdPercent, align 4
  %3 = zext i32 %2 to i64
  %4 = mul i64 %1, %3
  %5 = udiv i64 %4, 100
  ret i64 %5
}

; Function Attrs: mustprogress nounwind uwtable
define linkonce_odr hidden noundef i64 @_ZNK12G1HeapRegion13garbage_bytesEv(ptr noundef nonnull align 8 dereferenceable(136) %0) #1 comdat align 2 {
  %2 = alloca ptr, align 8
  store ptr %0, ptr %2, align 8
  %3 = load ptr, ptr %2, align 8
  %4 = getelementptr inbounds %class.G1HeapRegion, ptr %3, i32 0, i32 13
  %5 = load i64, ptr %4, align 8
  ret i64 %5
}

; Function Attrs: mustprogress nounwind uwtable
define linkonce_odr hidden noundef i64 @_ZNK12G1HeapRegion4usedEv(ptr noundef nonnull align 8 dereferenceable(136) %0) #1 comdat align 2 {
  %2 = alloca ptr, align 8
  store ptr %0, ptr %2, align 8
  %3 = load ptr, ptr %2, align 8
  %4 = call noundef ptr @_ZNK12G1HeapRegion6bottomEv(ptr noundef nonnull align 8 dereferenceable(136) %3)
  %5 = call noundef ptr @_ZNK12G1HeapRegion3topEv(ptr noundef nonnull align 8 dereferenceable(136) %3)
  %6 = call noundef i64 @_Z9byte_sizePvS_(ptr noundef %4, ptr noundef %5)
  ret i64 %6
}

; Function Attrs: mustprogress nounwind uwtable
define linkonce_odr hidden void @_ZN18G1HeapRegionRemSet18set_state_updatingEv(ptr noundef nonnull align 8 dereferenceable(84) %0) #1 comdat align 2 {
  %2 = alloca ptr, align 8
  store ptr %0, ptr %2, align 8
  %3 = load ptr, ptr %2, align 8
  br label %4

4:                                                ; preds = %1
  %5 = call noundef zeroext i1 @_ZN20SafepointSynchronize15is_at_safepointEv()
  br i1 %5, label %6, label %8

6:                                                ; preds = %4
  %7 = call noundef zeroext i1 @_ZN18G1HeapRegionRemSet10is_trackedEv(ptr noundef nonnull align 8 dereferenceable(84) %3)
  br i1 %7, label %8, label %11

8:                                                ; preds = %6, %4
  %9 = load ptr, ptr @g_assert_poison, align 8
  store i8 88, ptr %9, align 1
  %10 = call noundef ptr @_ZNK18G1HeapRegionRemSet13get_state_strEv(ptr noundef nonnull align 8 dereferenceable(84) %3)
  call void (ptr, i32, ptr, ptr, ...) @_Z15report_vm_errorPKciS0_S0_z(ptr noundef @.str.11, i32 noundef 48, ptr noundef @.str.14, ptr noundef @.str.15, ptr noundef %10) #9
  unreachable

11:                                               ; preds = %6
  br label %12

12:                                               ; preds = %11
  call void @_ZN18G1HeapRegionRemSet9clear_fccEv(ptr noundef nonnull align 8 dereferenceable(84) %3)
  %13 = getelementptr inbounds %class.G1HeapRegionRemSet, ptr %3, i32 0, i32 4
  store i32 1, ptr %13, align 8
  ret void
}

; Function Attrs: mustprogress nounwind uwtable
define linkonce_odr hidden noundef zeroext i1 @_ZN18G1HeapRegionRemSet10is_trackedEv(ptr noundef nonnull align 8 dereferenceable(84) %0) #1 comdat align 2 {
  %2 = alloca ptr, align 8
  store ptr %0, ptr %2, align 8
  %3 = load ptr, ptr %2, align 8
  %4 = getelementptr inbounds %class.G1HeapRegionRemSet, ptr %3, i32 0, i32 4
  %5 = load i32, ptr %4, align 8
  %6 = icmp ne i32 %5, 0
  ret i1 %6
}

; Function Attrs: mustprogress nounwind uwtable
define linkonce_odr hidden noundef ptr @_ZNK12G1HeapRegion7rem_setEv(ptr noundef nonnull align 8 dereferenceable(136) %0) #1 comdat align 2 {
  %2 = alloca ptr, align 8
  store ptr %0, ptr %2, align 8
  %3 = load ptr, ptr %2, align 8
  %4 = getelementptr inbounds %class.G1HeapRegion, ptr %3, i32 0, i32 5
  %5 = load ptr, ptr %4, align 8
  ret ptr %5
}

; Function Attrs: mustprogress nounwind uwtable
define linkonce_odr hidden noundef zeroext i1 @_ZN22G1CollectionSetChooser36region_occupancy_low_enough_for_evacEm(i64 noundef %0) #1 comdat align 2 {
  %2 = alloca i64, align 8
  store i64 %0, ptr %2, align 8
  %3 = load i64, ptr %2, align 8
  %4 = call noundef i64 @_ZN22G1CollectionSetChooser29mixed_gc_live_threshold_bytesEv()
  %5 = icmp ult i64 %3, %4
  ret i1 %5
}

; Function Attrs: mustprogress nounwind uwtable
define linkonce_odr hidden noundef i64 @_ZNK12G1HeapRegion10live_bytesEv(ptr noundef nonnull align 8 dereferenceable(136) %0) #1 comdat align 2 {
  %2 = alloca ptr, align 8
  store ptr %0, ptr %2, align 8
  %3 = load ptr, ptr %2, align 8
  %4 = call noundef i64 @_ZNK12G1HeapRegion4usedEv(ptr noundef nonnull align 8 dereferenceable(136) %3)
  %5 = call noundef i64 @_ZNK12G1HeapRegion13garbage_bytesEv(ptr noundef nonnull align 8 dereferenceable(136) %3)
  %6 = sub i64 %4, %5
  ret i64 %6
}

; Function Attrs: mustprogress nounwind uwtable
define hidden noundef zeroext i1 @_ZN22G1RemSetTrackingPolicy25update_old_before_rebuildEP12G1HeapRegion(ptr noundef nonnull align 1 dereferenceable(1) %0, ptr noundef %1) #1 align 2 {
  %3 = alloca ptr, align 8
  %4 = alloca ptr, align 8
  %5 = alloca i8, align 1
  store ptr %0, ptr %3, align 8
  store ptr %1, ptr %4, align 8
  store i8 0, ptr %5, align 1
  %6 = load ptr, ptr %4, align 8
  %7 = call noundef i64 @_ZNK12G1HeapRegion10live_bytesEv(ptr noundef nonnull align 8 dereferenceable(136) %6)
  %8 = call noundef zeroext i1 @_ZN22G1CollectionSetChooser36region_occupancy_low_enough_for_evacEm(i64 noundef %7)
  br i1 %8, label %9, label %16

9:                                                ; preds = %2
  %10 = load ptr, ptr %4, align 8
  %11 = call noundef ptr @_ZNK12G1HeapRegion7rem_setEv(ptr noundef nonnull align 8 dereferenceable(136) %10)
  %12 = call noundef zeroext i1 @_ZN18G1HeapRegionRemSet10is_trackedEv(ptr noundef nonnull align 8 dereferenceable(84) %11)
  br i1 %12, label %16, label %13

13:                                               ; preds = %9
  %14 = load ptr, ptr %4, align 8
  %15 = call noundef ptr @_ZNK12G1HeapRegion7rem_setEv(ptr noundef nonnull align 8 dereferenceable(136) %14)
  call void @_ZN18G1HeapRegionRemSet18set_state_updatingEv(ptr noundef nonnull align 8 dereferenceable(84) %15)
  store i8 1, ptr %5, align 1
  br label %16

16:                                               ; preds = %13, %9, %2
  %17 = load i8, ptr %5, align 1
  %18 = trunc i8 %17 to i1
  ret i1 %18
}