; Function Attrs: mustprogress nounwind uwtable
define hidden noundef zeroext i1 @_ZN22G1RemSetTrackingPolicy25update_old_before_rebuildEP12G1HeapRegion(ptr nocapture noundef nonnull readnone align 1 dereferenceable(1) %0, ptr noundef %1) local_unnamed_addr #0 align 2 {
  %3 = load ptr, ptr %1, align 8
  %4 = getelementptr inbounds i8, ptr %1, i64 16
  %5 = load volatile ptr, ptr %4, align 8
  %6 = ptrtoint ptr %5 to i64
  %7 = ptrtoint ptr %3 to i64
  %8 = getelementptr inbounds i8, ptr %1, i64 96
  %9 = load i64, ptr %8, align 8
  %10 = add i64 %9, %7
  %11 = sub i64 %6, %10
  %12 = load i64, ptr @_ZN12G1HeapRegion10GrainBytesE, align 8
  %13 = load i32, ptr @G1MixedGCLiveThresholdPercent, align 4
  %14 = zext i32 %13 to i64
  %15 = mul i64 %12, %14
  %16 = udiv i64 %15, 100
  %17 = icmp ugt i64 %16, %11
  br i1 %17, label %18, label %32

18:                                               ; preds = %2
  %19 = getelementptr inbounds i8, ptr %1, i64 40
  %20 = load ptr, ptr %19, align 8
  %21 = getelementptr inbounds i8, ptr %20, i64 80
  %22 = load i32, ptr %21, align 8
  %.not = icmp eq i32 %22, 0
  br i1 %.not, label %23, label %32

23:                                               ; preds = %18
  %24 = load volatile i32, ptr @_ZN20SafepointSynchronize6_stateE, align 4
  %25 = icmp eq i32 %24, 2
  br i1 %25, label %_ZN18G1HeapRegionRemSet18set_state_updatingEv.exit, label %26

26:                                               ; preds = %23
  %27 = load ptr, ptr @g_assert_poison, align 8
  store i8 88, ptr %27, align 1
  %28 = load i32, ptr %21, align 8
  %29 = zext i32 %28 to i64
  %30 = getelementptr inbounds [0 x ptr], ptr @_ZN18G1HeapRegionRemSet14_state_stringsE, i64 0, i64 %29
  %31 = load ptr, ptr %30, align 8
  tail call void (ptr, i32, ptr, ptr, ...) @_Z15report_vm_errorPKciS0_S0_z(ptr noundef nonnull @.str.11, i32 noundef 48, ptr noundef nonnull @.str.14, ptr noundef nonnull @.str.15, ptr noundef %31) #9
  unreachable

_ZN18G1HeapRegionRemSet18set_state_updatingEv.exit: ; preds = %23
  tail call void @_ZN18G1HeapRegionRemSet9clear_fccEv(ptr noundef nonnull align 8 dereferenceable(84) %20) #10
  store i32 1, ptr %21, align 8
  br label %32

32:                                               ; preds = %_ZN18G1HeapRegionRemSet18set_state_updatingEv.exit, %18, %2
  %.0 = phi i1 [ false, %18 ], [ true, %_ZN18G1HeapRegionRemSet18set_state_updatingEv.exit ], [ false, %2 ]
  ret i1 %.0
}